target datalayout = "e-m:e-p270:32:32-p271:32:32-p272:64:64-i64:64-i128:128-f80:128-n8:16:32:64-S128"
target triple = "x86_64-pc-linux-gnu"

%struct.grpc_ssl_pem_key_cert_pair = type { ptr, ptr }
%struct.grpc_ssl_server_credentials_options = type { i32, ptr, ptr }
%struct.grpc_ssl_server_certificate_config = type { ptr, i64, ptr }

; Function Attrs: mustprogress uwtable
define void @grpc_ssl_server_certificate_config_destroy(ptr noundef %0) #4 {
  %2 = alloca ptr, align 8
  %3 = alloca i64, align 8
  store ptr %0, ptr %2, align 8, !tbaa !189
  %4 = load ptr, ptr %2, align 8, !tbaa !189
  %5 = icmp eq ptr %4, null
  br i1 %5, label %6, label %7

6:                                                ; preds = %1
  br label %41

7:                                                ; preds = %1
  call void @llvm.lifetime.start.p0(i64 8, ptr %3) #3
  store i64 0, ptr %3, align 8, !tbaa !173
  br label %8

8:                                                ; preds = %30, %7
  %9 = load i64, ptr %3, align 8, !tbaa !173
  %10 = load ptr, ptr %2, align 8, !tbaa !189
  %11 = getelementptr inbounds nuw %struct.grpc_ssl_server_certificate_config, ptr %10, i32 0, i32 1
  %12 = load i64, ptr %11, align 8, !tbaa !160
  %13 = icmp ult i64 %9, %12
  br i1 %13, label %15, label %14

14:                                               ; preds = %8
  call void @llvm.lifetime.end.p0(i64 8, ptr %3) #3
  br label %33

15:                                               ; preds = %8
  %16 = load ptr, ptr %2, align 8, !tbaa !189
  %17 = getelementptr inbounds nuw %struct.grpc_ssl_server_certificate_config, ptr %16, i32 0, i32 0
  %18 = load ptr, ptr %17, align 8, !tbaa !159
  %19 = load i64, ptr %3, align 8, !tbaa !173
  %20 = getelementptr inbounds nuw %struct.grpc_ssl_pem_key_cert_pair, ptr %18, i64 %19
  %21 = getelementptr inbounds nuw %struct.grpc_ssl_pem_key_cert_pair, ptr %20, i32 0, i32 0
  %22 = load ptr, ptr %21, align 8, !tbaa !47
  call void @gpr_free(ptr noundef %22)
  %23 = load ptr, ptr %2, align 8, !tbaa !189
  %24 = getelementptr inbounds nuw %struct.grpc_ssl_server_certificate_config, ptr %23, i32 0, i32 0
  %25 = load ptr, ptr %24, align 8, !tbaa !159
  %26 = load i64, ptr %3, align 8, !tbaa !173
  %27 = getelementptr inbounds nuw %struct.grpc_ssl_pem_key_cert_pair, ptr %25, i64 %26
  %28 = getelementptr inbounds nuw %struct.grpc_ssl_pem_key_cert_pair, ptr %27, i32 0, i32 1
  %29 = load ptr, ptr %28, align 8, !tbaa !43
  call void @gpr_free(ptr noundef %29)
  br label %30

30:                                               ; preds = %15
  %31 = load i64, ptr %3, align 8, !tbaa !173
  %32 = add i64 %31, 1
  store i64 %32, ptr %3, align 8, !tbaa !173
  br label %8, !llvm.loop !191

33:                                               ; preds = %14
  %34 = load ptr, ptr %2, align 8, !tbaa !189
  %35 = getelementptr inbounds nuw %struct.grpc_ssl_server_certificate_config, ptr %34, i32 0, i32 0
  %36 = load ptr, ptr %35, align 8, !tbaa !159
  call void @gpr_free(ptr noundef %36)
  %37 = load ptr, ptr %2, align 8, !tbaa !189
  %38 = getelementptr inbounds nuw %struct.grpc_ssl_server_certificate_config, ptr %37, i32 0, i32 2
  %39 = load ptr, ptr %38, align 8, !tbaa !157
  call void @gpr_free(ptr noundef %39)
  %40 = load ptr, ptr %2, align 8, !tbaa !189
  call void @gpr_free(ptr noundef %40)
  br label %41

41:                                               ; preds = %33, %6
  ret void
}

; Function Attrs: mustprogress uwtable
define void @grpc_ssl_server_credentials_options_destroy(ptr noundef %0) #4 {
  %2 = alloca ptr, align 8
  store ptr %0, ptr %2, align 8, !tbaa !140
  %3 = load ptr, ptr %2, align 8, !tbaa !140
  %4 = icmp eq ptr %3, null
  br i1 %4, label %5, label %6

5:                                                ; preds = %1
  br label %14

6:                                                ; preds = %1
  %7 = load ptr, ptr %2, align 8, !tbaa !140
  %8 = getelementptr inbounds nuw %struct.grpc_ssl_server_credentials_options, ptr %7, i32 0, i32 2
  %9 = load ptr, ptr %8, align 8, !tbaa !142
  call void @gpr_free(ptr noundef %9)
  %10 = load ptr, ptr %2, align 8, !tbaa !140
  %11 = getelementptr inbounds nuw %struct.grpc_ssl_server_credentials_options, ptr %10, i32 0, i32 1
  %12 = load ptr, ptr %11, align 8, !tbaa !156
  call void @grpc_ssl_server_certificate_config_destroy(ptr noundef %12)
  %13 = load ptr, ptr %2, align 8, !tbaa !140
  call void @gpr_free(ptr noundef %13)
  br label %14

14:                                               ; preds = %6, %5
  ret void
}