; Function Attrs: mustprogress uwtable
define void @grpc_ssl_server_credentials_options_destroy(ptr noundef %0) local_unnamed_addr #3 {
  %2 = icmp eq ptr %0, null
  br i1 %2, label %23, label %3

3:                                                ; preds = %1
  %4 = getelementptr inbounds nuw i8, ptr %0, i64 16
  %5 = load ptr, ptr %4, align 8, !tbaa !112
  tail call void @gpr_free(ptr noundef %5)
  %6 = getelementptr inbounds nuw i8, ptr %0, i64 8
  %7 = load ptr, ptr %6, align 8, !tbaa !123
  %8 = icmp eq ptr %7, null
  br i1 %8, label %grpc_ssl_server_certificate_config_destroy.exit, label %.preheader.i

.preheader.i:                                     ; preds = %3
  %9 = getelementptr inbounds nuw i8, ptr %7, i64 8
  %10 = load i64, ptr %9, align 8, !tbaa !127
  %.not.i = icmp eq i64 %10, 0
  br i1 %.not.i, label %._crit_edge.i, label %.lr.ph.i

._crit_edge.i:                                    ; preds = %.lr.ph.i, %.preheader.i
  %11 = load ptr, ptr %7, align 8, !tbaa !126
  tail call void @gpr_free(ptr noundef %11)
  %12 = getelementptr inbounds nuw i8, ptr %7, i64 16
  %13 = load ptr, ptr %12, align 8, !tbaa !124
  tail call void @gpr_free(ptr noundef %13)
  tail call void @gpr_free(ptr noundef nonnull %7)
  br label %grpc_ssl_server_certificate_config_destroy.exit

.lr.ph.i:                                         ; preds = %.preheader.i, %.lr.ph.i
  %.011.i = phi i64 [ %20, %.lr.ph.i ], [ 0, %.preheader.i ]
  %14 = load ptr, ptr %7, align 8, !tbaa !126
  %15 = getelementptr inbounds nuw %struct.grpc_ssl_pem_key_cert_pair, ptr %14, i64 %.011.i
  %16 = load ptr, ptr %15, align 8, !tbaa !41
  tail call void @gpr_free(ptr noundef %16)
  %17 = load ptr, ptr %7, align 8, !tbaa !126
  %18 = getelementptr inbounds nuw %struct.grpc_ssl_pem_key_cert_pair, ptr %17, i64 %.011.i, i32 1
  %19 = load ptr, ptr %18, align 8, !tbaa !37
  tail call void @gpr_free(ptr noundef %19)
  %20 = add nuw i64 %.011.i, 1
  %21 = load i64, ptr %9, align 8, !tbaa !127
  %22 = icmp ult i64 %20, %21
  br i1 %22, label %.lr.ph.i, label %._crit_edge.i, !llvm.loop !144

grpc_ssl_server_certificate_config_destroy.exit:  ; preds = %3, %._crit_edge.i
  tail call void @gpr_free(ptr noundef nonnull %0)
  br label %23

23:                                               ; preds = %1, %grpc_ssl_server_certificate_config_destroy.exit
  ret void
}